; Function Attrs: mustprogress nofree norecurse nosync nounwind willreturn memory(argmem: readwrite) uwtable
define void @getUnitVector(ptr dead_on_unwind noalias writable writeonly sret(%struct.Vector) align 8 captures(none) initializes((0, 24)) %0, ptr noundef readonly byval(%struct.Vector) align 8 captures(none) %1) local_unnamed_addr #2 {
  %3 = load double, ptr %1, align 8, !tbaa !8
  %4 = getelementptr inbounds nuw i8, ptr %1, i64 8
  %5 = load double, ptr %4, align 8, !tbaa !11
  %6 = fmul double %5, %5
  %7 = tail call double @llvm.fmuladd.f64(double %3, double %3, double %6)
  %8 = getelementptr inbounds nuw i8, ptr %1, i64 16
  %9 = load double, ptr %8, align 8, !tbaa !12
  %10 = tail call double @llvm.fmuladd.f64(double %9, double %9, double %7)
  %sqrt.i = tail call double @llvm.sqrt.f64(double %10)
  %11 = fdiv double %3, %sqrt.i
  store double %11, ptr %0, align 8, !tbaa !8
  %12 = getelementptr inbounds nuw i8, ptr %0, i64 8
  %13 = fdiv double %5, %sqrt.i
  store double %13, ptr %12, align 8, !tbaa !11
  %14 = getelementptr inbounds nuw i8, ptr %0, i64 16
  %15 = fdiv double %9, %sqrt.i
  store double %15, ptr %14, align 8, !tbaa !12
  ret void
}